; Function Attrs: nounwind uwtable
define ptr @l_Std_Time_PlainDate_weekOfMonth(ptr noundef readonly captures(none) %0) local_unnamed_addr #0 {
  %2 = getelementptr inbounds nuw i8, ptr %0, i64 24
  %3 = load ptr, ptr %2, align 8, !tbaa !4
  %4 = load ptr, ptr @l_Std_Time_PlainDate_weekOfMonth___closed__1, align 8, !tbaa !4
  %5 = ptrtoint ptr %3 to i64
  %6 = and i64 %5, 1
  %.not.i13 = icmp eq i64 %6, 0
  br i1 %.not.i13, label %.critedge.i, label %7, !prof !8

7:                                                ; preds = %1
  %8 = ptrtoint ptr %4 to i64
  %9 = and i64 %8, 1
  %.not7.i = icmp eq i64 %9, 0
  br i1 %.not7.i, label %.critedge.i, label %10, !prof !8

10:                                               ; preds = %7
  %11 = shl i64 %5, 31
  %12 = ashr i64 %11, 32
  %13 = shl i64 %8, 31
  %14 = ashr i64 %13, 32
  %15 = add nsw i64 %14, %12
  %16 = add nsw i64 %15, 2147483648
  %17 = icmp ult i64 %16, 4294967296
  br i1 %17, label %18, label %23, !prof !14

18:                                               ; preds = %10
  %19 = shl nsw i64 %15, 1
  %20 = and i64 %19, 8589934590
  %21 = or disjoint i64 %20, 1
  %22 = inttoptr i64 %21 to ptr
  br label %lean_int_add.exit

23:                                               ; preds = %10
  %24 = tail call ptr @lean_big_int64_to_int(i64 noundef range(i64 -4611686016279904256, 4611686018427387905) %15) #5
  br label %lean_int_add.exit

.critedge.i:                                      ; preds = %7, %1
  %25 = tail call ptr @lean_int_big_add(ptr noundef %3, ptr noundef %4) #5
  br label %lean_int_add.exit

lean_int_add.exit:                                ; preds = %18, %23, %.critedge.i
  %.0.i = phi ptr [ %25, %.critedge.i ], [ %22, %18 ], [ %24, %23 ]
  %26 = load ptr, ptr @l___private_Std_Time_Date_PlainDate_0__Std_Time_reprPlainDate____x40_Std_Time_Date_PlainDate___hyg_340____closed__16, align 8, !tbaa !4
  %27 = ptrtoint ptr %.0.i to i64
  %28 = and i64 %27, 1
  %.not.i14 = icmp eq i64 %28, 0
  br i1 %.not.i14, label %55, label %29, !prof !8

29:                                               ; preds = %lean_int_add.exit
  %30 = ptrtoint ptr %26 to i64
  %31 = and i64 %30, 1
  %.not18.i = icmp eq i64 %31, 0
  br i1 %.not18.i, label %lean_int_ediv.exit.thread23, label %33, !prof !8

lean_int_ediv.exit.thread23:                      ; preds = %29
  %32 = tail call ptr @lean_int_big_ediv(ptr noundef %.0.i, ptr noundef %26) #5
  br label %lean_dec.exit10

33:                                               ; preds = %29
  %34 = lshr i64 %30, 1
  %35 = trunc i64 %34 to i32
  %36 = icmp eq i32 %35, 0
  br i1 %36, label %lean_dec.exit10, label %37

37:                                               ; preds = %33
  %sext.i = shl i64 %34, 32
  %38 = ashr exact i64 %sext.i, 32
  %39 = shl i64 %27, 31
  %40 = ashr i64 %39, 32
  %41 = sdiv i64 %40, %38
  %42 = srem i64 %40, %38
  %43 = icmp slt i64 %42, 0
  %44 = icmp sgt i32 %35, 0
  %.v.i = select i1 %44, i64 -1, i64 1
  %45 = select i1 %43, i64 %.v.i, i64 0
  %.016.i = add nsw i64 %45, %41
  %46 = add nsw i64 %.016.i, 2147483648
  %47 = icmp ult i64 %46, 4294967296
  br i1 %47, label %48, label %53, !prof !14

48:                                               ; preds = %37
  %49 = shl nsw i64 %.016.i, 1
  %50 = and i64 %49, 8589934590
  %51 = or disjoint i64 %50, 1
  %52 = inttoptr i64 %51 to ptr
  br label %lean_dec.exit10

53:                                               ; preds = %37
  %54 = tail call ptr @lean_big_int64_to_int(i64 noundef range(i64 -4611686016279904256, 4611686018427387905) %.016.i) #5
  br label %lean_dec.exit10

55:                                               ; preds = %lean_int_add.exit
  %56 = tail call ptr @lean_int_big_ediv(ptr noundef %.0.i, ptr noundef %26) #5
  %57 = load i32, ptr %.0.i, align 4, !tbaa !9
  %58 = icmp sgt i32 %57, 1
  br i1 %58, label %59, label %61, !prof !14

59:                                               ; preds = %55
  %60 = add nsw i32 %57, -1
  store i32 %60, ptr %.0.i, align 4, !tbaa !9
  br label %lean_dec.exit10

61:                                               ; preds = %55
  %.not.i = icmp eq i32 %57, 0
  br i1 %.not.i, label %lean_dec.exit10, label %62

62:                                               ; preds = %61
  tail call void @lean_dec_ref_cold(ptr noundef nonnull %.0.i) #5
  br label %lean_dec.exit10

lean_dec.exit10:                                  ; preds = %53, %48, %33, %62, %61, %59, %lean_int_ediv.exit.thread23
  %.1.i22 = phi ptr [ %32, %lean_int_ediv.exit.thread23 ], [ %56, %59 ], [ %56, %61 ], [ %56, %62 ], [ %54, %53 ], [ %52, %48 ], [ inttoptr (i64 1 to ptr), %33 ]
  %63 = load ptr, ptr @l_Std_Time_instInhabitedPlainDate___closed__1, align 8, !tbaa !4
  %64 = ptrtoint ptr %.1.i22 to i64
  %65 = and i64 %64, 1
  %.not.i16 = icmp eq i64 %65, 0
  br i1 %.not.i16, label %85, label %66, !prof !8

66:                                               ; preds = %lean_dec.exit10
  %67 = ptrtoint ptr %63 to i64
  %68 = and i64 %67, 1
  %.not7.i17 = icmp eq i64 %68, 0
  br i1 %.not7.i17, label %lean_int_add.exit20.thread26, label %70, !prof !8

lean_int_add.exit20.thread26:                     ; preds = %66
  %69 = tail call ptr @lean_int_big_add(ptr noundef %.1.i22, ptr noundef %63) #5
  br label %lean_dec.exit

70:                                               ; preds = %66
  %71 = shl i64 %64, 31
  %72 = ashr i64 %71, 32
  %73 = shl i64 %67, 31
  %74 = ashr i64 %73, 32
  %75 = add nsw i64 %74, %72
  %76 = add nsw i64 %75, 2147483648
  %77 = icmp ult i64 %76, 4294967296
  br i1 %77, label %78, label %83, !prof !14

78:                                               ; preds = %70
  %79 = shl nsw i64 %75, 1
  %80 = and i64 %79, 8589934590
  %81 = or disjoint i64 %80, 1
  %82 = inttoptr i64 %81 to ptr
  br label %lean_dec.exit

83:                                               ; preds = %70
  %84 = tail call ptr @lean_big_int64_to_int(i64 noundef range(i64 -4611686016279904256, 4611686018427387905) %75) #5
  br label %lean_dec.exit

85:                                               ; preds = %lean_dec.exit10
  %86 = tail call ptr @lean_int_big_add(ptr noundef %.1.i22, ptr noundef %63) #5
  %87 = load i32, ptr %.1.i22, align 4, !tbaa !9
  %88 = icmp sgt i32 %87, 1
  br i1 %88, label %89, label %91, !prof !14

89:                                               ; preds = %85
  %90 = add nsw i32 %87, -1
  store i32 %90, ptr %.1.i22, align 4, !tbaa !9
  br label %lean_dec.exit

91:                                               ; preds = %85
  %.not.i11 = icmp eq i32 %87, 0
  br i1 %.not.i11, label %lean_dec.exit, label %92

92:                                               ; preds = %91
  tail call void @lean_dec_ref_cold(ptr noundef nonnull %.1.i22) #5
  br label %lean_dec.exit

lean_dec.exit:                                    ; preds = %83, %78, %92, %91, %89, %lean_int_add.exit20.thread26
  %.0.i1825 = phi ptr [ %69, %lean_int_add.exit20.thread26 ], [ %86, %89 ], [ %86, %91 ], [ %86, %92 ], [ %84, %83 ], [ %82, %78 ]
  ret ptr %.0.i1825
}